; Function Attrs: nounwind uwtable
define dso_local range(i32 -13, 1) i32 @reftable_reader_init_ref_iterator(ptr noundef %0, ptr noundef %1) local_unnamed_addr #0 {
  %3 = getelementptr inbounds nuw i8, ptr %0, i64 64
  %4 = load i32, ptr %3, align 8, !tbaa !31
  %.not.i = icmp eq i32 %4, 0
  br i1 %.not.i, label %14, label %5

5:                                                ; preds = %2
  %6 = tail call ptr @reftable_malloc(i64 noundef 208) #12
  %.not12.not.i = icmp eq ptr %6, null
  br i1 %.not12.not.i, label %reader_init_iter.exit, label %7

7:                                                ; preds = %5
  tail call void @llvm.memset.p0.i64(ptr noundef nonnull align 8 dereferenceable(208) %6, i8 0, i64 208, i1 false)
  %8 = getelementptr inbounds nuw i8, ptr %0, i64 136
  %9 = load i64, ptr %8, align 8, !tbaa !32
  %.not.i.i.i = icmp eq i64 %9, 0
  br i1 %.not.i.i.i, label %10, label %table_iter_init.exit.i

10:                                               ; preds = %7
  tail call void (ptr, i32, ptr, ...) @BUG_fl(ptr noundef nonnull @.str.1, i32 noundef 678, ptr noundef nonnull @.str.2) #13
  unreachable

table_iter_init.exit.i:                           ; preds = %7
  %11 = add i64 %9, 1
  store i64 %11, ptr %8, align 8, !tbaa !32
  store ptr %0, ptr %6, align 8, !tbaa !33
  %12 = getelementptr inbounds nuw i8, ptr %6, i64 120
  tail call void @llvm.memset.p0.i64(ptr noundef nonnull align 8 dereferenceable(80) %12, i8 0, i64 80, i1 false)
  %13 = getelementptr inbounds nuw i8, ptr %1, i64 8
  store ptr %6, ptr %13, align 8, !tbaa !41
  store ptr @table_iter_vtable, ptr %1, align 8, !tbaa !44
  br label %reader_init_iter.exit

14:                                               ; preds = %2
  tail call void @iterator_set_empty(ptr noundef %1) #12
  br label %reader_init_iter.exit

reader_init_iter.exit:                            ; preds = %5, %table_iter_init.exit.i, %14
  %.1.i = phi i32 [ -13, %5 ], [ 0, %table_iter_init.exit.i ], [ 0, %14 ]
  ret i32 %.1.i
}